

Microchip Technology PIC18 LITE Macro Assembler V1.33 build 59893 
                                                                                               Thu Dec  4 14:21:49 2014

Microchip Technology Omniscient Code Generator (Lite mode) build 59893
     1                           	processor	18F25K22
     2                           	fnconf	rparam,??,?,0
     3                           	opt	pw 120
     4                           	opt	lm
     5                           	psect	mediumconst,global,reloc=2,class=MEDIUMCONST,delta=1
     6                           	psect	nvCOMRAM,global,class=COMRAM,space=1,delta=1
     7                           	psect	cinit,global,reloc=2,class=CODE,delta=1
     8                           	psect	bssCOMRAM,global,class=COMRAM,space=1,delta=1
     9                           	psect	bssBANK0,global,class=BANK0,space=1,delta=1
    10                           	psect	bssBANK1,global,class=BANK1,space=1,delta=1
    11                           	psect	cstackCOMRAM,global,class=COMRAM,space=1,delta=1
    12                           	psect	text0,global,reloc=2,class=CODE,delta=1
    13                           	psect	text1,global,reloc=2,class=CODE,delta=1
    14                           	psect	text2,global,reloc=2,class=CODE,delta=1
    15                           	psect	text3,global,reloc=2,class=CODE,delta=1
    16                           	psect	text4,global,reloc=2,class=CODE,delta=1
    17                           	psect	text5,global,reloc=2,class=CODE,delta=1
    18                           	psect	text6,global,reloc=2,class=CODE,delta=1
    19                           	psect	text7,global,reloc=2,class=CODE,delta=1
    20                           	psect	text8,global,reloc=2,class=CODE,delta=1
    21                           	psect	intsave_regs,global,class=BIGRAM,space=1,delta=1
    22                           	psect	rparam,global,class=COMRAM,space=1,delta=1
    23  0000                     
    24                           	psect	mediumconst
    25  0079FE                     __pmediumconst:
    26                           	opt stack 0
    27  0079FE  00                 	db	0
    28  0079FF                     _Sinewave:
    29                           	opt stack 0
    30  0079FF  0000               	dw	0
    31  007A01  00C9               	dw	201
    32  007A03  0192               	dw	402
    33  007A05  025B               	dw	603
    34  007A07  0324               	dw	804
    35  007A09  03ED               	dw	1005
    36  007A0B  04B6               	dw	1206
    37  007A0D  057E               	dw	1406
    38  007A0F  0647               	dw	1607
    39  007A11  0710               	dw	1808
    40  007A13  07D9               	dw	2009
    41  007A15  08A1               	dw	2209
    42  007A17  096A               	dw	2410
    43  007A19  0A32               	dw	2610
    44  007A1B  0AFB               	dw	2811
    45  007A1D  0BC3               	dw	3011
    46  007A1F  0C8B               	dw	3211
    47  007A21  0D53               	dw	3411
    48  007A23  0E1B               	dw	3611
    49  007A25  0EE3               	dw	3811
    50  007A27  0FAB               	dw	4011
    51  007A29  1072               	dw	4210
    52  007A2B  1139               	dw	4409
    53  007A2D  1200               	dw	4608
    54  007A2F  12C7               	dw	4807
    55  007A31  138E               	dw	5006
    56  007A33  1455               	dw	5205
    57  007A35  151B               	dw	5403
    58  007A37  15E1               	dw	5601
    59  007A39  16A7               	dw	5799
    60  007A3B  176D               	dw	5997
    61  007A3D  1833               	dw	6195
    62  007A3F  18F8               	dw	6392
    63  007A41  19BD               	dw	6589
    64  007A43  1A82               	dw	6786
    65  007A45  1B46               	dw	6982
    66  007A47  1C0B               	dw	7179
    67  007A49  1CCF               	dw	7375
    68  007A4B  1D93               	dw	7571
    69  007A4D  1E56               	dw	7766
    70  007A4F  1F19               	dw	7961
    71  007A51  1FDC               	dw	8156
    72  007A53  209F               	dw	8351
    73  007A55  2161               	dw	8545
    74  007A57  2223               	dw	8739
    75  007A59  22E4               	dw	8932
    76  007A5B  23A6               	dw	9126
    77  007A5D  2467               	dw	9319
    78  007A5F  2527               	dw	9511
    79  007A61  25E7               	dw	9703
    80  007A63  26A7               	dw	9895
    81  007A65  2767               	dw	10087
    82  007A67  2826               	dw	10278
    83  007A69  28E5               	dw	10469
    84  007A6B  29A3               	dw	10659
    85  007A6D  2A61               	dw	10849
    86  007A6F  2B1E               	dw	11038
    87  007A71  2BDB               	dw	11227
    88  007A73  2C98               	dw	11416
    89  007A75  2D54               	dw	11604
    90  007A77  2E10               	dw	11792
    91  007A79  2ECC               	dw	11980
    92  007A7B  2F86               	dw	12166
    93  007A7D  3041               	dw	12353
    94  007A7F  30FB               	dw	12539
    95  007A81  31B4               	dw	12724
    96  007A83  326D               	dw	12909
    97  007A85  3326               	dw	13094
    98  007A87  33DE               	dw	13278
    99  007A89  3496               	dw	13462
   100  007A8B  354D               	dw	13645
   101  007A8D  3603               	dw	13827
   102  007A8F  36B9               	dw	14009
   103  007A91  376F               	dw	14191
   104  007A93  3824               	dw	14372
   105  007A95  38D8               	dw	14552
   106  007A97  398C               	dw	14732
   107  007A99  3A3F               	dw	14911
   108  007A9B  3AF2               	dw	15090
   109  007A9D  3BA4               	dw	15268
   110  007A9F  3C56               	dw	15446
   111  007AA1  3D07               	dw	15623
   112  007AA3  3DB7               	dw	15799
   113  007AA5  3E67               	dw	15975
   114  007AA7  3F16               	dw	16150
   115  007AA9  3FC5               	dw	16325
   116  007AAB  4073               	dw	16499
   117  007AAD  4120               	dw	16672
   118  007AAF  41CD               	dw	16845
   119  007AB1  4279               	dw	17017
   120  007AB3  4325               	dw	17189
   121  007AB5  43D0               	dw	17360
   122  007AB7  447A               	dw	17530
   123  007AB9  4523               	dw	17699
   124  007ABB  45CC               	dw	17868
   125  007ABD  4674               	dw	18036
   126  007ABF  471C               	dw	18204
   127  007AC1  47C3               	dw	18371
   128  007AC3  4869               	dw	18537
   129  007AC5  490E               	dw	18702
   130  007AC7  49B3               	dw	18867
   131  007AC9  4A57               	dw	19031
   132  007ACB  4AFA               	dw	19194
   133  007ACD  4B9D               	dw	19357
   134  007ACF  4C3F               	dw	19519
   135  007AD1  4CE0               	dw	19680
   136  007AD3  4D80               	dw	19840
   137  007AD5  4E20               	dw	20000
   138  007AD7  4EBF               	dw	20159
   139  007AD9  4F5D               	dw	20317
   140  007ADB  4FFA               	dw	20474
   141  007ADD  5097               	dw	20631
   142  007ADF  5133               	dw	20787
   143  007AE1  51CE               	dw	20942
   144  007AE3  5268               	dw	21096
   145  007AE5  5301               	dw	21249
   146  007AE7  539A               	dw	21402
   147  007AE9  5432               	dw	21554
   148  007AEB  54C9               	dw	21705
   149  007AED  555F               	dw	21855
   150  007AEF  55F4               	dw	22004
   151  007AF1  5689               	dw	22153
   152  007AF3  571D               	dw	22301
   153  007AF5  57B0               	dw	22448
   154  007AF7  5842               	dw	22594
   155  007AF9  58D3               	dw	22739
   156  007AFB  5963               	dw	22883
   157  007AFD  59F3               	dw	23027
   158  007AFF  5A81               	dw	23169
   159  007B01  5B0F               	dw	23311
   160  007B03  5B9C               	dw	23452
   161  007B05  5C28               	dw	23592
   162  007B07  5CB3               	dw	23731
   163  007B09  5D3D               	dw	23869
   164  007B0B  5DC6               	dw	24006
   165  007B0D  5E4F               	dw	24143
   166  007B0F  5ED6               	dw	24278
   167  007B11  5F5D               	dw	24413
   168  007B13  5FE2               	dw	24546
   169  007B15  6067               	dw	24679
   170  007B17  60EB               	dw	24811
   171  007B19  616E               	dw	24942
   172  007B1B  61F0               	dw	25072
   173  007B1D  6271               	dw	25201
   174  007B1F  62F1               	dw	25329
   175  007B21  6370               	dw	25456
   176  007B23  63EE               	dw	25582
   177  007B25  646B               	dw	25707
   178  007B27  64E7               	dw	25831
   179  007B29  6562               	dw	25954
   180  007B2B  65DD               	dw	26077
   181  007B2D  6656               	dw	26198
   182  007B2F  66CE               	dw	26318
   183  007B31  6745               	dw	26437
   184  007B33  67BC               	dw	26556
   185  007B35  6831               	dw	26673
   186  007B37  68A5               	dw	26789
   187  007B39  6919               	dw	26905
   188  007B3B  698B               	dw	27019
   189  007B3D  69FC               	dw	27132
   190  007B3F  6A6C               	dw	27244
   191  007B41  6ADB               	dw	27355
   192  007B43  6B4A               	dw	27466
   193  007B45  6BB7               	dw	27575
   194  007B47  6C23               	dw	27683
   195  007B49  6C8E               	dw	27790
   196  007B4B  6CF8               	dw	27896
   197  007B4D  6D61               	dw	28001
   198  007B4F  6DC9               	dw	28105
   199  007B51  6E30               	dw	28208
   200  007B53  6E95               	dw	28309
   201  007B55  6EFA               	dw	28410
   202  007B57  6F5E               	dw	28510
   203  007B59  6FC0               	dw	28608
   204  007B5B  7022               	dw	28706
   205  007B5D  7082               	dw	28802
   206  007B5F  70E1               	dw	28897
   207  007B61  7140               	dw	28992
   208  007B63  719D               	dw	29085
   209  007B65  71F9               	dw	29177
   210  007B67  7254               	dw	29268
   211  007B69  72AE               	dw	29358
   212  007B6B  7306               	dw	29446
   213  007B6D  735E               	dw	29534
   214  007B6F  73B5               	dw	29621
   215  007B71  740A               	dw	29706
   216  007B73  745E               	dw	29790
   217  007B75  74B1               	dw	29873
   218  007B77  7503               	dw	29955
   219  007B79  7554               	dw	30036
   220  007B7B  75A4               	dw	30116
   221  007B7D  75F3               	dw	30195
   222  007B7F  7640               	dw	30272
   223  007B81  768D               	dw	30349
   224  007B83  76D8               	dw	30424
   225  007B85  7722               	dw	30498
   226  007B87  776B               	dw	30571
   227  007B89  77B3               	dw	30643
   228  007B8B  77F9               	dw	30713
   229  007B8D  783F               	dw	30783
   230  007B8F  7883               	dw	30851
   231  007B91  78C6               	dw	30918
   232  007B93  7908               	dw	30984
   233  007B95  7949               	dw	31049
   234  007B97  7989               	dw	31113
   235  007B99  79C7               	dw	31175
   236  007B9B  7A04               	dw	31236
   237  007B9D  7A41               	dw	31297
   238  007B9F  7A7C               	dw	31356
   239  007BA1  7AB5               	dw	31413
   240  007BA3  7AEE               	dw	31470
   241  007BA5  7B25               	dw	31525
   242  007BA7  7B5C               	dw	31580
   243  007BA9  7B91               	dw	31633
   244  007BAB  7BC4               	dw	31684
   245  007BAD  7BF7               	dw	31735
   246  007BAF  7C29               	dw	31785
   247  007BB1  7C59               	dw	31833
   248  007BB3  7C88               	dw	31880
   249  007BB5  7CB6               	dw	31926
   250  007BB7  7CE2               	dw	31970
   251  007BB9  7D0E               	dw	32014
   252  007BBB  7D38               	dw	32056
   253  007BBD  7D61               	dw	32097
   254  007BBF  7D89               	dw	32137
   255  007BC1  7DB0               	dw	32176
   256  007BC3  7DD5               	dw	32213
   257  007BC5  7DF9               	dw	32249
   258  007BC7  7E1C               	dw	32284
   259  007BC9  7E3E               	dw	32318
   260  007BCB  7E5E               	dw	32350
   261  007BCD  7E7E               	dw	32382
   262  007BCF  7E9C               	dw	32412
   263  007BD1  7EB9               	dw	32441
   264  007BD3  7ED4               	dw	32468
   265  007BD5  7EEF               	dw	32495
   266  007BD7  7F08               	dw	32520
   267  007BD9  7F20               	dw	32544
   268  007BDB  7F37               	dw	32567
   269  007BDD  7F4C               	dw	32588
   270  007BDF  7F61               	dw	32609
   271  007BE1  7F74               	dw	32628
   272  007BE3  7F86               	dw	32646
   273  007BE5  7F96               	dw	32662
   274  007BE7  7FA6               	dw	32678
   275  007BE9  7FB4               	dw	32692
   276  007BEB  7FC1               	dw	32705
   277  007BED  7FCD               	dw	32717
   278  007BEF  7FD7               	dw	32727
   279  007BF1  7FE0               	dw	32736
   280  007BF3  7FE8               	dw	32744
   281  007BF5  7FEF               	dw	32751
   282  007BF7  7FF5               	dw	32757
   283  007BF9  7FF9               	dw	32761
   284  007BFB  7FFC               	dw	32764
   285  007BFD  7FFE               	dw	32766
   286  007BFF  7FFF               	dw	32767
   287  007C01  7FFE               	dw	32766
   288  007C03  7FFC               	dw	32764
   289  007C05  7FF9               	dw	32761
   290  007C07  7FF5               	dw	32757
   291  007C09  7FEF               	dw	32751
   292  007C0B  7FE8               	dw	32744
   293  007C0D  7FE0               	dw	32736
   294  007C0F  7FD7               	dw	32727
   295  007C11  7FCD               	dw	32717
   296  007C13  7FC1               	dw	32705
   297  007C15  7FB4               	dw	32692
   298  007C17  7FA6               	dw	32678
   299  007C19  7F96               	dw	32662
   300  007C1B  7F86               	dw	32646
   301  007C1D  7F74               	dw	32628
   302  007C1F  7F61               	dw	32609
   303  007C21  7F4C               	dw	32588
   304  007C23  7F37               	dw	32567
   305  007C25  7F20               	dw	32544
   306  007C27  7F08               	dw	32520
   307  007C29  7EEF               	dw	32495
   308  007C2B  7ED4               	dw	32468
   309  007C2D  7EB9               	dw	32441
   310  007C2F  7E9C               	dw	32412
   311  007C31  7E7E               	dw	32382
   312  007C33  7E5E               	dw	32350
   313  007C35  7E3E               	dw	32318
   314  007C37  7E1C               	dw	32284
   315  007C39  7DF9               	dw	32249
   316  007C3B  7DD5               	dw	32213
   317  007C3D  7DB0               	dw	32176
   318  007C3F  7D89               	dw	32137
   319  007C41  7D61               	dw	32097
   320  007C43  7D38               	dw	32056
   321  007C45  7D0E               	dw	32014
   322  007C47  7CE2               	dw	31970
   323  007C49  7CB6               	dw	31926
   324  007C4B  7C88               	dw	31880
   325  007C4D  7C59               	dw	31833
   326  007C4F  7C29               	dw	31785
   327  007C51  7BF7               	dw	31735
   328  007C53  7BC4               	dw	31684
   329  007C55  7B91               	dw	31633
   330  007C57  7B5C               	dw	31580
   331  007C59  7B25               	dw	31525
   332  007C5B  7AEE               	dw	31470
   333  007C5D  7AB5               	dw	31413
   334  007C5F  7A7C               	dw	31356
   335  007C61  7A41               	dw	31297
   336  007C63  7A04               	dw	31236
   337  007C65  79C7               	dw	31175
   338  007C67  7989               	dw	31113
   339  007C69  7949               	dw	31049
   340  007C6B  7908               	dw	30984
   341  007C6D  78C6               	dw	30918
   342  007C6F  7883               	dw	30851
   343  007C71  783F               	dw	30783
   344  007C73  77F9               	dw	30713
   345  007C75  77B3               	dw	30643
   346  007C77  776B               	dw	30571
   347  007C79  7722               	dw	30498
   348  007C7B  76D8               	dw	30424
   349  007C7D  768D               	dw	30349
   350  007C7F  7640               	dw	30272
   351  007C81  75F3               	dw	30195
   352  007C83  75A4               	dw	30116
   353  007C85  7554               	dw	30036
   354  007C87  7503               	dw	29955
   355  007C89  74B1               	dw	29873
   356  007C8B  745E               	dw	29790
   357  007C8D  740A               	dw	29706
   358  007C8F  73B5               	dw	29621
   359  007C91  735E               	dw	29534
   360  007C93  7306               	dw	29446
   361  007C95  72AE               	dw	29358
   362  007C97  7254               	dw	29268
   363  007C99  71F9               	dw	29177
   364  007C9B  719D               	dw	29085
   365  007C9D  7140               	dw	28992
   366  007C9F  70E1               	dw	28897
   367  007CA1  7082               	dw	28802
   368  007CA3  7022               	dw	28706
   369  007CA5  6FC0               	dw	28608
   370  007CA7  6F5E               	dw	28510
   371  007CA9  6EFA               	dw	28410
   372  007CAB  6E95               	dw	28309
   373  007CAD  6E30               	dw	28208
   374  007CAF  6DC9               	dw	28105
   375  007CB1  6D61               	dw	28001
   376  007CB3  6CF8               	dw	27896
   377  007CB5  6C8E               	dw	27790
   378  007CB7  6C23               	dw	27683
   379  007CB9  6BB7               	dw	27575
   380  007CBB  6B4A               	dw	27466
   381  007CBD  6ADB               	dw	27355
   382  007CBF  6A6C               	dw	27244
   383  007CC1  69FC               	dw	27132
   384  007CC3  698B               	dw	27019
   385  007CC5  6919               	dw	26905
   386  007CC7  68A5               	dw	26789
   387  007CC9  6831               	dw	26673
   388  007CCB  67BC               	dw	26556
   389  007CCD  6745               	dw	26437
   390  007CCF  66CE               	dw	26318
   391  007CD1  6656               	dw	26198
   392  007CD3  65DD               	dw	26077
   393  007CD5  6562               	dw	25954
   394  007CD7  64E7               	dw	25831
   395  007CD9  646B               	dw	25707
   396  007CDB  63EE               	dw	25582
   397  007CDD  6370               	dw	25456
   398  007CDF  62F1               	dw	25329
   399  007CE1  6271               	dw	25201
   400  007CE3  61F0               	dw	25072
   401  007CE5  616E               	dw	24942
   402  007CE7  60EB               	dw	24811
   403  007CE9  6067               	dw	24679
   404  007CEB  5FE2               	dw	24546
   405  007CED  5F5D               	dw	24413
   406  007CEF  5ED6               	dw	24278
   407  007CF1  5E4F               	dw	24143
   408  007CF3  5DC6               	dw	24006
   409  007CF5  5D3D               	dw	23869
   410  007CF7  5CB3               	dw	23731
   411  007CF9  5C28               	dw	23592
   412  007CFB  5B9C               	dw	23452
   413  007CFD  5B0F               	dw	23311
   414  007CFF  5A81               	dw	23169
   415  007D01  59F3               	dw	23027
   416  007D03  5963               	dw	22883
   417  007D05  58D3               	dw	22739
   418  007D07  5842               	dw	22594
   419  007D09  57B0               	dw	22448
   420  007D0B  571D               	dw	22301
   421  007D0D  5689               	dw	22153
   422  007D0F  55F4               	dw	22004
   423  007D11  555F               	dw	21855
   424  007D13  54C9               	dw	21705
   425  007D15  5432               	dw	21554
   426  007D17  539A               	dw	21402
   427  007D19  5301               	dw	21249
   428  007D1B  5268               	dw	21096
   429  007D1D  51CE               	dw	20942
   430  007D1F  5133               	dw	20787
   431  007D21  5097               	dw	20631
   432  007D23  4FFA               	dw	20474
   433  007D25  4F5D               	dw	20317
   434  007D27  4EBF               	dw	20159
   435  007D29  4E20               	dw	20000
   436  007D2B  4D80               	dw	19840
   437  007D2D  4CE0               	dw	19680
   438  007D2F  4C3F               	dw	19519
   439  007D31  4B9D               	dw	19357
   440  007D33  4AFA               	dw	19194
   441  007D35  4A57               	dw	19031
   442  007D37  49B3               	dw	18867
   443  007D39  490E               	dw	18702
   444  007D3B  4869               	dw	18537
   445  007D3D  47C3               	dw	18371
   446  007D3F  471C               	dw	18204
   447  007D41  4674               	dw	18036
   448  007D43  45CC               	dw	17868
   449  007D45  4523               	dw	17699
   450  007D47  447A               	dw	17530
   451  007D49  43D0               	dw	17360
   452  007D4B  4325               	dw	17189
   453  007D4D  4279               	dw	17017
   454  007D4F  41CD               	dw	16845
   455  007D51  4120               	dw	16672
   456  007D53  4073               	dw	16499
   457  007D55  3FC5               	dw	16325
   458  007D57  3F16               	dw	16150
   459  007D59  3E67               	dw	15975
   460  007D5B  3DB7               	dw	15799
   461  007D5D  3D07               	dw	15623
   462  007D5F  3C56               	dw	15446
   463  007D61  3BA4               	dw	15268
   464  007D63  3AF2               	dw	15090
   465  007D65  3A3F               	dw	14911
   466  007D67  398C               	dw	14732
   467  007D69  38D8               	dw	14552
   468  007D6B  3824               	dw	14372
   469  007D6D  376F               	dw	14191
   470  007D6F  36B9               	dw	14009
   471  007D71  3603               	dw	13827
   472  007D73  354D               	dw	13645
   473  007D75  3496               	dw	13462
   474  007D77  33DE               	dw	13278
   475  007D79  3326               	dw	13094
   476  007D7B  326D               	dw	12909
   477  007D7D  31B4               	dw	12724
   478  007D7F  30FB               	dw	12539
   479  007D81  3041               	dw	12353
   480  007D83  2F86               	dw	12166
   481  007D85  2ECC               	dw	11980
   482  007D87  2E10               	dw	11792
   483  007D89  2D54               	dw	11604
   484  007D8B  2C98               	dw	11416
   485  007D8D  2BDB               	dw	11227
   486  007D8F  2B1E               	dw	11038
   487  007D91  2A61               	dw	10849
   488  007D93  29A3               	dw	10659
   489  007D95  28E5               	dw	10469
   490  007D97  2826               	dw	10278
   491  007D99  2767               	dw	10087
   492  007D9B  26A7               	dw	9895
   493  007D9D  25E7               	dw	9703
   494  007D9F  2527               	dw	9511
   495  007DA1  2467               	dw	9319
   496  007DA3  23A6               	dw	9126
   497  007DA5  22E4               	dw	8932
   498  007DA7  2223               	dw	8739
   499  007DA9  2161               	dw	8545
   500  007DAB  209F               	dw	8351
   501  007DAD  1FDC               	dw	8156
   502  007DAF  1F19               	dw	7961
   503  007DB1  1E56               	dw	7766
   504  007DB3  1D93               	dw	7571
   505  007DB5  1CCF               	dw	7375
   506  007DB7  1C0B               	dw	7179
   507  007DB9  1B46               	dw	6982
   508  007DBB  1A82               	dw	6786
   509  007DBD  19BD               	dw	6589
   510  007DBF  18F8               	dw	6392
   511  007DC1  1833               	dw	6195
   512  007DC3  176D               	dw	5997
   513  007DC5  16A7               	dw	5799
   514  007DC7  15E1               	dw	5601
   515  007DC9  151B               	dw	5403
   516  007DCB  1455               	dw	5205
   517  007DCD  138E               	dw	5006
   518  007DCF  12C7               	dw	4807
   519  007DD1  1200               	dw	4608
   520  007DD3  1139               	dw	4409
   521  007DD5  1072               	dw	4210
   522  007DD7  0FAB               	dw	4011
   523  007DD9  0EE3               	dw	3811
   524  007DDB  0E1B               	dw	3611
   525  007DDD  0D53               	dw	3411
   526  007DDF  0C8B               	dw	3211
   527  007DE1  0BC3               	dw	3011
   528  007DE3  0AFB               	dw	2811
   529  007DE5  0A32               	dw	2610
   530  007DE7  096A               	dw	2410
   531  007DE9  08A1               	dw	2209
   532  007DEB  07D9               	dw	2009
   533  007DED  0710               	dw	1808
   534  007DEF  0647               	dw	1607
   535  007DF1  057E               	dw	1406
   536  007DF3  04B6               	dw	1206
   537  007DF5  03ED               	dw	1005
   538  007DF7  0324               	dw	804
   539  007DF9  025B               	dw	603
   540  007DFB  0192               	dw	402
   541  007DFD  00C9               	dw	201
   542  007DFF  0000               	dw	0
   543  007E01  FF37               	dw	65335
   544  007E03  FE6E               	dw	65134
   545  007E05  FDA5               	dw	64933
   546  007E07  FCDC               	dw	64732
   547  007E09  FC13               	dw	64531
   548  007E0B  FB4A               	dw	64330
   549  007E0D  FA82               	dw	64130
   550  007E0F  F9B9               	dw	63929
   551  007E11  F8F0               	dw	63728
   552  007E13  F827               	dw	63527
   553  007E15  F75F               	dw	63327
   554  007E17  F696               	dw	63126
   555  007E19  F5CE               	dw	62926
   556  007E1B  F505               	dw	62725
   557  007E1D  F43D               	dw	62525
   558  007E1F  F375               	dw	62325
   559  007E21  F2AD               	dw	62125
   560  007E23  F1E5               	dw	61925
   561  007E25  F11D               	dw	61725
   562  007E27  F055               	dw	61525
   563  007E29  EF8E               	dw	61326
   564  007E2B  EEC7               	dw	61127
   565  007E2D  EE00               	dw	60928
   566  007E2F  ED39               	dw	60729
   567  007E31  EC72               	dw	60530
   568  007E33  EBAB               	dw	60331
   569  007E35  EAE5               	dw	60133
   570  007E37  EA1F               	dw	59935
   571  007E39  E959               	dw	59737
   572  007E3B  E893               	dw	59539
   573  007E3D  E7CD               	dw	59341
   574  007E3F  E708               	dw	59144
   575  007E41  E643               	dw	58947
   576  007E43  E57E               	dw	58750
   577  007E45  E4BA               	dw	58554
   578  007E47  E3F5               	dw	58357
   579  007E49  E331               	dw	58161
   580  007E4B  E26D               	dw	57965
   581  007E4D  E1AA               	dw	57770
   582  007E4F  E0E7               	dw	57575
   583  007E51  E024               	dw	57380
   584  007E53  DF61               	dw	57185
   585  007E55  DE9F               	dw	56991
   586  007E57  DDDD               	dw	56797
   587  007E59  DD1C               	dw	56604
   588  007E5B  DC5A               	dw	56410
   589  007E5D  DB99               	dw	56217
   590  007E5F  DAD9               	dw	56025
   591  007E61  DA19               	dw	55833
   592  007E63  D959               	dw	55641
   593  007E65  D899               	dw	55449
   594  007E67  D7DA               	dw	55258
   595  007E69  D71B               	dw	55067
   596  007E6B  D65D               	dw	54877
   597  007E6D  D59F               	dw	54687
   598  007E6F  D4E2               	dw	54498
   599  007E71  D425               	dw	54309
   600  007E73  D368               	dw	54120
   601  007E75  D2AC               	dw	53932
   602  007E77  D1F0               	dw	53744
   603  007E79  D134               	dw	53556
   604  007E7B  D07A               	dw	53370
   605  007E7D  CFBF               	dw	53183
   606  007E7F  CF05               	dw	52997
   607  007E81  CE4C               	dw	52812
   608  007E83  CD93               	dw	52627
   609  007E85  CCDA               	dw	52442
   610  007E87  CC22               	dw	52258
   611  007E89  CB6A               	dw	52074
   612  007E8B  CAB3               	dw	51891
   613  007E8D  C9FD               	dw	51709
   614  007E8F  C947               	dw	51527
   615  007E91  C891               	dw	51345
   616  007E93  C7DC               	dw	51164
   617  007E95  C728               	dw	50984
   618  007E97  C674               	dw	50804
   619  007E99  C5C1               	dw	50625
   620  007E9B  C50E               	dw	50446
   621  007E9D  C45C               	dw	50268
   622  007E9F  C3AA               	dw	50090
   623  007EA1  C2F9               	dw	49913
   624  007EA3  C249               	dw	49737
   625  007EA5  C199               	dw	49561
   626  007EA7  C0EA               	dw	49386
   627  007EA9  C03B               	dw	49211
   628  007EAB  BF8D               	dw	49037
   629  007EAD  BEE0               	dw	48864
   630  007EAF  BE33               	dw	48691
   631  007EB1  BD87               	dw	48519
   632  007EB3  BCDB               	dw	48347
   633  007EB5  BC30               	dw	48176
   634  007EB7  BB86               	dw	48006
   635  007EB9  BADD               	dw	47837
   636  007EBB  BA34               	dw	47668
   637  007EBD  B98C               	dw	47500
   638  007EBF  B8E4               	dw	47332
   639  007EC1  B83D               	dw	47165
   640  007EC3  B797               	dw	46999
   641  007EC5  B6F2               	dw	46834
   642  007EC7  B64D               	dw	46669
   643  007EC9  B5A9               	dw	46505
   644  007ECB  B506               	dw	46342
   645  007ECD  B463               	dw	46179
   646  007ECF  B3C1               	dw	46017
   647  007ED1  B320               	dw	45856
   648  007ED3  B280               	dw	45696
   649  007ED5  B1E0               	dw	45536
   650  007ED7  B141               	dw	45377
   651  007ED9  B0A3               	dw	45219
   652  007EDB  B006               	dw	45062
   653  007EDD  AF69               	dw	44905
   654  007EDF  AECD               	dw	44749
   655  007EE1  AE32               	dw	44594
   656  007EE3  AD98               	dw	44440
   657  007EE5  ACFF               	dw	44287
   658  007EE7  AC66               	dw	44134
   659  007EE9  ABCE               	dw	43982
   660  007EEB  AB37               	dw	43831
   661  007EED  AAA1               	dw	43681
   662  007EEF  AA0C               	dw	43532
   663  007EF1  A977               	dw	43383
   664  007EF3  A8E3               	dw	43235
   665  007EF5  A850               	dw	43088
   666  007EF7  A7BE               	dw	42942
   667  007EF9  A72D               	dw	42797
   668  007EFB  A69D               	dw	42653
   669  007EFD  A60D               	dw	42509
   670  007EFF  A57F               	dw	42367
   671  007F01  A4F1               	dw	42225
   672  007F03  A464               	dw	42084
   673  007F05  A3D8               	dw	41944
   674  007F07  A34D               	dw	41805
   675  007F09  A2C3               	dw	41667
   676  007F0B  A23A               	dw	41530
   677  007F0D  A1B1               	dw	41393
   678  007F0F  A12A               	dw	41258
   679  007F11  A0A3               	dw	41123
   680  007F13  A01E               	dw	40990
   681  007F15  9F99               	dw	40857
   682  007F17  9F15               	dw	40725
   683  007F19  9E92               	dw	40594
   684  007F1B  9E10               	dw	40464
   685  007F1D  9D8F               	dw	40335
   686  007F1F  9D0F               	dw	40207
   687  007F21  9C90               	dw	40080
   688  007F23  9C12               	dw	39954
   689  007F25  9B95               	dw	39829
   690  007F27  9B19               	dw	39705
   691  007F29  9A9E               	dw	39582
   692  007F2B  9A23               	dw	39459
   693  007F2D  99AA               	dw	39338
   694  007F2F  9932               	dw	39218
   695  007F31  98BB               	dw	39099
   696  007F33  9844               	dw	38980
   697  007F35  97CF               	dw	38863
   698  007F37  975B               	dw	38747
   699  007F39  96E7               	dw	38631
   700  007F3B  9675               	dw	38517
   701  007F3D  9604               	dw	38404
   702  007F3F  9594               	dw	38292
   703  007F41  9525               	dw	38181
   704  007F43  94B6               	dw	38070
   705  007F45  9449               	dw	37961
   706  007F47  93DD               	dw	37853
   707  007F49  9372               	dw	37746
   708  007F4B  9308               	dw	37640
   709  007F4D  929F               	dw	37535
   710  007F4F  9237               	dw	37431
   711  007F51  91D0               	dw	37328
   712  007F53  916B               	dw	37227
   713  007F55  9106               	dw	37126
   714  007F57  90A2               	dw	37026
   715  007F59  9040               	dw	36928
   716  007F5B  8FDE               	dw	36830
   717  007F5D  8F7E               	dw	36734
   718  007F5F  8F1F               	dw	36639
   719  007F61  8EC0               	dw	36544
   720  007F63  8E63               	dw	36451
   721  007F65  8E07               	dw	36359
   722  007F67  8DAC               	dw	36268
   723  007F69  8D52               	dw	36178
   724  007F6B  8CFA               	dw	36090
   725  007F6D  8CA2               	dw	36002
   726  007F6F  8C4B               	dw	35915
   727  007F71  8BF6               	dw	35830
   728  007F73  8BA2               	dw	35746
   729  007F75  8B4F               	dw	35663
   730  007F77  8AFD               	dw	35581
   731  007F79  8AAC               	dw	35500
   732  007F7B  8A5C               	dw	35420
   733  007F7D  8A0D               	dw	35341
   734  007F7F  89C0               	dw	35264
   735  007F81  8973               	dw	35187
   736  007F83  8928               	dw	35112
   737  007F85  88DE               	dw	35038
   738  007F87  8895               	dw	34965
   739  007F89  884D               	dw	34893
   740  007F8B  8807               	dw	34823
   741  007F8D  87C1               	dw	34753
   742  007F8F  877D               	dw	34685
   743  007F91  873A               	dw	34618
   744  007F93  86F8               	dw	34552
   745  007F95  86B7               	dw	34487
   746  007F97  8677               	dw	34423
   747  007F99  8639               	dw	34361
   748  007F9B  85FC               	dw	34300
   749  007F9D  85BF               	dw	34239
   750  007F9F  8584               	dw	34180
   751  007FA1  854B               	dw	34123
   752  007FA3  8512               	dw	34066
   753  007FA5  84DB               	dw	34011
   754  007FA7  84A4               	dw	33956
   755  007FA9  846F               	dw	33903
   756  007FAB  843C               	dw	33852
   757  007FAD  8409               	dw	33801
   758  007FAF  83D7               	dw	33751
   759  007FB1  83A7               	dw	33703
   760  007FB3  8378               	dw	33656
   761  007FB5  834A               	dw	33610
   762  007FB7  831E               	dw	33566
   763  007FB9  82F2               	dw	33522
   764  007FBB  82C8               	dw	33480
   765  007FBD  829F               	dw	33439
   766  007FBF  8277               	dw	33399
   767  007FC1  8250               	dw	33360
   768  007FC3  822B               	dw	33323
   769  007FC5  8207               	dw	33287
   770  007FC7  81E4               	dw	33252
   771  007FC9  81C2               	dw	33218
   772  007FCB  81A2               	dw	33186
   773  007FCD  8182               	dw	33154
   774  007FCF  8164               	dw	33124
   775  007FD1  8147               	dw	33095
   776  007FD3  812C               	dw	33068
   777  007FD5  8111               	dw	33041
   778  007FD7  80F8               	dw	33016
   779  007FD9  80E0               	dw	32992
   780  007FDB  80C9               	dw	32969
   781  007FDD  80B4               	dw	32948
   782  007FDF  809F               	dw	32927
   783  007FE1  808C               	dw	32908
   784  007FE3  807A               	dw	32890
   785  007FE5  806A               	dw	32874
   786  007FE7  805A               	dw	32858
   787  007FE9  804C               	dw	32844
   788  007FEB  803F               	dw	32831
   789  007FED  8033               	dw	32819
   790  007FEF  8029               	dw	32809
   791  007FF1  8020               	dw	32800
   792  007FF3  8018               	dw	32792
   793  007FF5  8011               	dw	32785
   794  007FF7  800B               	dw	32779
   795  007FF9  8007               	dw	32775
   796  007FFB  8004               	dw	32772
   797  007FFD  8002               	dw	32770
   798  007FFF                     __end_of_Sinewave:
   799                           	opt stack 0
   800  0000                     _ADCON0	set	4034
   801  0000                     _ADCON0bits	set	4034
   802  0000                     _ADCON1	set	4033
   803  0000                     _ADCON2	set	4032
   804  0000                     _ADRESH	set	4036
   805  0000                     _ADRESL	set	4035
   806  0000                     _ANSELC	set	3898
   807  0000                     _INTCONbits	set	4082
   808  0000                     _LATC	set	3979
   809  0000                     _OSCCONbits	set	4051
   810  0000                     _OSCTUNEbits	set	3995
   811  0000                     _PIE1	set	3997
   812  0000                     _PIE1bits	set	3997
   813  0000                     _PIR1bits	set	3998
   814  0000                     _RCSTA1	set	4011
   815  0000                     _RCSTA1bits	set	4011
   816  0000                     _SPBRG1	set	4015
   817  0000                     _SPBRGH1	set	4016
   818  0000                     _TRISAbits	set	3986
   819  0000                     _TRISC	set	3988
   820  0000                     _TRISCbits	set	3988
   821  0000                     _TXREG1	set	4013
   822  0000                     _TXSTA1	set	4012
   823  0000                     _TXSTA1bits	set	4012
   824  007FFF  00                 	db	0	; dummy byte at the end
   825  0000                     
   826                           	psect	nvCOMRAM
   827  000016                     __pnvCOMRAM:
   828                           	opt stack 0
   829  000016                     _baud_rate:
   830                           	opt stack 0
   831  000016                     	ds	4
   832                           
   833                           ; #config settings
   834  0000                     
   835                           	psect	cinit
   836  0077EC                     __pcinit:
   837                           	opt stack 0
   838  0077EC                     start_initialization:
   839                           	opt stack 0
   840  0077EC                     __initialization:
   841                           	opt stack 0
   842                           
   843                           ; Clear objects allocated to BANK1 (128 bytes)
   844  0077EC  EE01  F000         	lfsr	0,__pbssBANK1
   845  0077F0  0E80               	movlw	128
   846  0077F2                     clear_0:
   847  0077F2  6AEE               	clrf	postinc0,c
   848  0077F4  06E8               	decf	wreg,f,c
   849  0077F6  E1FD               	bnz	clear_0
   850                           
   851                           ; Clear objects allocated to BANK0 (128 bytes)
   852  0077F8  EE00  F060         	lfsr	0,__pbssBANK0
   853  0077FC  0E80               	movlw	128
   854  0077FE                     clear_1:
   855  0077FE  6AEE               	clrf	postinc0,c
   856  007800  06E8               	decf	wreg,f,c
   857  007802  E1FD               	bnz	clear_1
   858                           
   859                           ; Clear objects allocated to COMRAM (9 bytes)
   860  007804  EE00  F00D         	lfsr	0,__pbssCOMRAM
   861  007808  0E09               	movlw	9
   862  00780A                     clear_2:
   863  00780A  6AEE               	clrf	postinc0,c
   864  00780C  06E8               	decf	wreg,f,c
   865  00780E  E1FD               	bnz	clear_2
   866  007810                     end_of_initialization:
   867                           	opt stack 0
   868  007810                     __end_of__initialization:
   869                           	opt stack 0
   870  007810  0E00               	movlw	low (__Lmediumconst shr (0+16))
   871  007812  6EF8               	movwf	tblptru,c
   872  007814  0100               	movlb	0
   873  007816  EF7A  F03C         	goto	_main	;jump to C main() function
   874                           tblptru	equ	0xFF8
   875                           postinc0	equ	0xFEE
   876                           wreg	equ	0xFE8
   877                           
   878                           	psect	bssCOMRAM
   879  00000D                     __pbssCOMRAM:
   880                           	opt stack 0
   881  00000D                     _data:
   882                           	opt stack 0
   883  00000D                     	ds	5
   884  000012                     _i:
   885                           	opt stack 0
   886  000012                     	ds	2
   887  000014                     _USART1_Status:
   888                           	opt stack 0
   889  000014                     	ds	1
   890  000015                     _input:
   891                           	opt stack 0
   892  000015                     	ds	1
   893                           tblptru	equ	0xFF8
   894                           postinc0	equ	0xFEE
   895                           wreg	equ	0xFE8
   896                           
   897                           	psect	bssBANK0
   898  000060                     __pbssBANK0:
   899                           	opt stack 0
   900  000060                     _realNumbers:
   901                           	opt stack 0
   902  000060                     	ds	128
   903                           tblptru	equ	0xFF8
   904                           postinc0	equ	0xFEE
   905                           wreg	equ	0xFE8
   906                           
   907                           	psect	bssBANK1
   908  000100                     __pbssBANK1:
   909                           	opt stack 0
   910  000100                     _imaginaryNumbers:
   911                           	opt stack 0
   912  000100                     	ds	128
   913                           tblptru	equ	0xFF8
   914                           postinc0	equ	0xFEE
   915                           wreg	equ	0xFE8
   916                           
   917                           	psect	cstackCOMRAM
   918  000001                     __pcstackCOMRAM:
   919                           	opt stack 0
   920  000001                     ?_ReadADC:
   921                           	opt stack 0
   922  000001                     OpenADC@config2:
   923                           	opt stack 0
   924  000001                     Write1USART@data:
   925                           	opt stack 0
   926  000001                     Open1USART@spbrg:
   927                           	opt stack 0
   928                           
   929                           ; 2 bytes @ 0x0
   930  000001                     	ds	1
   931  000002                     sendChar@character:
   932                           	opt stack 0
   933  000002                     OpenADC@config3:
   934                           	opt stack 0
   935                           
   936                           ; 1 bytes @ 0x1
   937  000002                     	ds	1
   938  000003                     ??_OpenADC:
   939  000003                     ??_Open1USART:
   940  000003                     sendIntArray@array:
   941                           	opt stack 0
   942                           
   943                           ; 2 bytes @ 0x2
   944  000003                     	ds	2
   945  000005                     OpenADC@config:
   946                           	opt stack 0
   947  000005                     sendIntArray@size:
   948                           	opt stack 0
   949                           
   950                           ; 2 bytes @ 0x4
   951  000005                     	ds	1
   952  000006                     Open1USART@config:
   953                           	opt stack 0
   954                           
   955                           ; 1 bytes @ 0x5
   956  000006                     	ds	1
   957  000007                     ??_main:
   958                           
   959                           ; 0 bytes @ 0x6
   960  000007                     	ds	2
   961  000009                     main@adc_value:
   962                           	opt stack 0
   963                           
   964                           ; 2 bytes @ 0x8
   965  000009                     	ds	2
   966  00000B                     main@i:
   967                           	opt stack 0
   968                           
   969                           ; 2 bytes @ 0xA
   970  00000B                     	ds	2
   971                           tblptru	equ	0xFF8
   972                           postinc0	equ	0xFEE
   973                           wreg	equ	0xFE8
   974                           
   975 ;;
   976 ;;Main: autosize = 0, tempsize = 2, incstack = 0, save=0
   977 ;;
   978 ;; *************** function _main *****************
   979 ;; Defined at:
   980 ;;		line 37 in file "main pic18.c"
   981 ;; Parameters:    Size  Location     Type
   982 ;;		None
   983 ;; Auto vars:     Size  Location     Type
   984 ;;  i               2   10[COMRAM] short 
   985 ;;  adc_value       2    8[COMRAM] unsigned int 
   986 ;; Return value:  Size  Location     Type
   987 ;;		None               void
   988 ;; Registers used:
   989 ;;		wreg, fsr2l, fsr2h, status,2, status,0, cstack
   990 ;; Tracked objects:
   991 ;;		On entry : 0/0
   992 ;;		On exit  : 0/0
   993 ;;		Unchanged: 0/0
   994 ;; Data sizes:     COMRAM   BANK0   BANK1   BANK2   BANK3   BANK4   BANK5
   995 ;;      Params:         0       0       0       0       0       0       0
   996 ;;      Locals:         4       0       0       0       0       0       0
   997 ;;      Temps:          2       0       0       0       0       0       0
   998 ;;      Totals:         6       0       0       0       0       0       0
   999 ;;Total ram usage:        6 bytes
  1000 ;; Hardware stack levels required when called:    3
  1001 ;; This function calls:
  1002 ;;		_BusyADC
  1003 ;;		_ConvertADC
  1004 ;;		_Open1USART
  1005 ;;		_OpenADC
  1006 ;;		_ReadADC
  1007 ;;		_sendIntArray
  1008 ;; This function is called by:
  1009 ;;		Startup code after reset
  1010 ;; This function uses a non-reentrant model
  1011 ;;
  1012                           
  1013                           	psect	text0
  1014  0078F4                     __ptext0:
  1015                           	opt stack 0
  1016  0078F4                     _main:
  1017                           	opt stack 28
  1018                           
  1019                           ;main pic18.c: 38: unsigned int adc_value;
  1020                           ;main pic18.c: 39: TRISAbits.RA7 = 1;
  1021                           
  1022                           ;incstack = 0
  1023  0078F4  8E92               	bsf	3986,7,c	;volatile
  1024                           
  1025                           ;main pic18.c: 40: TRISC = 0x00;
  1026  0078F6  0E00               	movlw	0
  1027  0078F8  6E94               	movwf	3988,c	;volatile
  1028                           
  1029                           ;main pic18.c: 41: LATC = 0x00;
  1030  0078FA  0E00               	movlw	0
  1031  0078FC  6E8B               	movwf	3979,c	;volatile
  1032                           
  1033                           ;main pic18.c: 42: ANSELC = 0x00;
  1034  0078FE  0E00               	movlw	0
  1035  007900  010F               	movlb	15	; () banked
  1036  007902  6F3A               	movwf	58,b	;volatile
  1037                           
  1038                           ; BSR set to: 15
  1039                           ;main pic18.c: 43: TRISCbits.TRISC6 = 1;
  1040  007904  8C94               	bsf	3988,6,c	;volatile
  1041                           
  1042                           ; BSR set to: 15
  1043                           ;main pic18.c: 44: TRISCbits.TRISC7 = 1;
  1044  007906  8E94               	bsf	3988,7,c	;volatile
  1045                           
  1046                           ; BSR set to: 15
  1047                           ;main pic18.c: 46: OSCCONbits.IRCF = 0b111;
  1048  007908  88D3               	bsf	4051,4,c	;volatile
  1049  00790A  8AD3               	bsf	4051,5,c	;volatile
  1050  00790C  8CD3               	bsf	4051,6,c	;volatile
  1051                           
  1052                           ;main pic18.c: 47: OSCCONbits.SCS = 0b11;
  1053  00790E  0E03               	movlw	3
  1054  007910  12D3               	iorwf	4051,f,c	;volatile
  1055                           
  1056                           ; BSR set to: 15
  1057                           ;main pic18.c: 48: OSCTUNEbits.TUN = 0b01111;
  1058  007912  809B               	bsf	3995,0,c	;volatile
  1059  007914  829B               	bsf	3995,1,c	;volatile
  1060  007916  849B               	bsf	3995,2,c	;volatile
  1061  007918  869B               	bsf	3995,3,c	;volatile
  1062  00791A  989B               	bcf	3995,4,c	;volatile
  1063  00791C  9A9B               	bcf	3995,5,c	;volatile
  1064                           
  1065                           ;main pic18.c: 51: baud_rate = (4000000 / 9600 / 16 - 1);
  1066  00791E  0E19               	movlw	25
  1067  007920  6E16               	movwf	_baud_rate,c
  1068  007922  0E00               	movlw	0
  1069  007924  6E17               	movwf	_baud_rate+1,c
  1070  007926  0E00               	movlw	0
  1071  007928  6E18               	movwf	_baud_rate+2,c
  1072  00792A  0E00               	movlw	0
  1073  00792C  6E19               	movwf	_baud_rate+3,c
  1074                           
  1075                           ; BSR set to: 15
  1076                           ;main pic18.c: 52: OpenADC(0b11111111 &
  1077                           ;main pic18.c: 53: 0b11111111 &
  1078                           ;main pic18.c: 54: 0b11110001,
  1079                           ;main pic18.c: 55: 0b10000011 &
  1080                           ;main pic18.c: 56: 0b01111111 &
  1081                           ;main pic18.c: 57: 0b11110111 &
  1082                           ;main pic18.c: 58: 0b11111100,
  1083                           ;main pic18.c: 59: 0b1110);
  1084  00792E  0E00               	movlw	0
  1085  007930  6E01               	movwf	OpenADC@config2,c
  1086  007932  0E0E               	movlw	14
  1087  007934  6E02               	movwf	OpenADC@config3,c
  1088  007936  0EF1               	movlw	241
  1089  007938  EC27  F03C         	call	_OpenADC
  1090                           
  1091                           ;main pic18.c: 61: RCSTA1&=0b01001111,TXSTA1bits.TXEN=0,PIE1&=0b11001111;
  1092  00793C  0E4F               	movlw	79
  1093  00793E  16AB               	andwf	4011,f,c	;volatile
  1094  007940  9AAC               	bcf	4012,5,c	;volatile
  1095  007942  0ECF               	movlw	207
  1096  007944  169D               	andwf	3997,f,c	;volatile
  1097                           
  1098                           ;main pic18.c: 62: Open1USART( 0b01111111 &
  1099                           ;main pic18.c: 63: 0b10111111 &
  1100                           ;main pic18.c: 64: 0b11111110 &
  1101                           ;main pic18.c: 65: 0b11111101 &
  1102                           ;main pic18.c: 66: 0b11111111 &
  1103                           ;main pic18.c: 67: 0b11101111,
  1104                           ;main pic18.c: 68: baud_rate );
  1105  007946  C016  F001         	movff	_baud_rate,Open1USART@spbrg
  1106  00794A  C017  F002         	movff	_baud_rate+1,Open1USART@spbrg+1
  1107  00794E  0E2C               	movlw	44
  1108  007950  EC4E  F03C         	call	_Open1USART
  1109  007954                     l1098:
  1110                           
  1111                           ;main pic18.c: 71: short i = 0;
  1112  007954  0E00               	movlw	0
  1113  007956  6E0C               	movwf	main@i+1,c
  1114  007958  0E00               	movlw	0
  1115  00795A  6E0B               	movwf	main@i,c
  1116                           
  1117                           ;main pic18.c: 72: for (i = 0; i < 64; i++) {
  1118  00795C  0E00               	movlw	0
  1119  00795E  6E0C               	movwf	main@i+1,c
  1120  007960  0E00               	movlw	0
  1121  007962  6E0B               	movwf	main@i,c
  1122  007964  500C               	movf	main@i+1,w,c
  1123  007966  0A80               	xorlw	128
  1124  007968  0F80               	addlw	-128
  1125  00796A  0E40               	movlw	64
  1126  00796C  B4D8               	btfsc	status,2,c
  1127  00796E  5C0B               	subwf	main@i,w,c
  1128  007970  B0D8               	btfsc	status,0,c
  1129  007972  D038               	goto	l1118
  1130                           
  1131                           ;main pic18.c: 74: ConvertADC();
  1132  007974  ECD9  F03B         	call	_ConvertADC	;wreg free
  1133  007978                     l1106:
  1134  007978  ECE0  F03B         	call	_BusyADC	;wreg free
  1135  00797C  0900               	iorlw	0
  1136  00797E  A4D8               	btfss	status,2,c
  1137  007980  D7FB               	goto	l1106
  1138                           
  1139                           ;main pic18.c: 80: adc_value = ReadADC() >> 2;
  1140  007982  ECDB  F03B         	call	_ReadADC	;wreg free
  1141  007986  3402               	rlcf	?_ReadADC+1,w,c
  1142  007988  3202               	rrcf	?_ReadADC+1,f,c
  1143  00798A  3201               	rrcf	?_ReadADC,f,c
  1144  00798C  3402               	rlcf	?_ReadADC+1,w,c
  1145  00798E  3202               	rrcf	?_ReadADC+1,f,c
  1146  007990  3201               	rrcf	?_ReadADC,f,c
  1147  007992  C001  F009         	movff	?_ReadADC,main@adc_value
  1148  007996  C002  F00A         	movff	?_ReadADC+1,main@adc_value+1
  1149                           
  1150                           ;main pic18.c: 82: realNumbers[i] = i;
  1151  00799A  0E60               	movlw	low _realNumbers
  1152  00799C  6E07               	movwf	??_main& (0+255),c
  1153  00799E  0E00               	movlw	high _realNumbers
  1154  0079A0  6E08               	movwf	(??_main+1)& (0+255),c
  1155  0079A2  90D8               	bcf	status,0,c
  1156  0079A4  340B               	rlcf	main@i,w,c
  1157  0079A6  6ED9               	movwf	fsr2l,c
  1158  0079A8  340C               	rlcf	main@i+1,w,c
  1159  0079AA  6EDA               	movwf	fsr2h,c
  1160  0079AC  5007               	movf	??_main,w,c
  1161  0079AE  26D9               	addwf	fsr2l,f,c
  1162  0079B0  5008               	movf	??_main+1,w,c
  1163  0079B2  22DA               	addwfc	fsr2h,f,c
  1164  0079B4  C00B  FFDE         	movff	main@i,postinc2
  1165  0079B8  C00C  FFDD         	movff	main@i+1,postdec2
  1166                           
  1167                           ;main pic18.c: 85: imaginaryNumbers[i] = 0;
  1168  0079BC  0E00               	movlw	low _imaginaryNumbers
  1169  0079BE  6E07               	movwf	??_main& (0+255),c
  1170  0079C0  0E01               	movlw	high _imaginaryNumbers
  1171  0079C2  6E08               	movwf	(??_main+1)& (0+255),c
  1172  0079C4  90D8               	bcf	status,0,c
  1173  0079C6  340B               	rlcf	main@i,w,c
  1174  0079C8  6ED9               	movwf	fsr2l,c
  1175  0079CA  340C               	rlcf	main@i+1,w,c
  1176  0079CC  6EDA               	movwf	fsr2h,c
  1177  0079CE  5007               	movf	??_main,w,c
  1178  0079D0  26D9               	addwf	fsr2l,f,c
  1179  0079D2  5008               	movf	??_main+1,w,c
  1180  0079D4  22DA               	addwfc	fsr2h,f,c
  1181  0079D6  0E00               	movlw	0
  1182  0079D8  6EDE               	movwf	postinc2,c
  1183  0079DA  0E00               	movlw	0
  1184  0079DC  6EDD               	movwf	postdec2,c
  1185  0079DE  4A0B               	infsnz	main@i,f,c
  1186  0079E0  2A0C               	incf	main@i+1,f,c
  1187  0079E2  D7C0               	goto	L1
  1188  0079E4                     l1118:
  1189                           
  1190                           ;main pic18.c: 86: }
  1191                           ;main pic18.c: 88: sendIntArray(realNumbers, 64);
  1192  0079E4  0100               	movlb	0	; () banked
  1193  0079E6  0E00               	movlw	high _realNumbers
  1194  0079E8  6E04               	movwf	sendIntArray@array+1,c
  1195  0079EA  0100               	movlb	0	; () banked
  1196  0079EC  0E60               	movlw	low _realNumbers
  1197  0079EE  6E03               	movwf	sendIntArray@array,c
  1198  0079F0  0E00               	movlw	0
  1199  0079F2  6E06               	movwf	sendIntArray@size+1,c
  1200  0079F4  0E40               	movlw	64
  1201  0079F6  6E05               	movwf	sendIntArray@size,c
  1202  0079F8  EC0D  F03C         	call	_sendIntArray	;wreg free
  1203  0079FC  D7AB               	goto	l1098
  1204  0079FE                     __end_of_main:
  1205                           	opt stack 0
  1206                           tblptru	equ	0xFF8
  1207                           postinc0	equ	0xFEE
  1208                           wreg	equ	0xFE8
  1209                           postinc2	equ	0xFDE
  1210                           postdec2	equ	0xFDD
  1211                           fsr2h	equ	0xFDA
  1212                           fsr2l	equ	0xFD9
  1213                           status	equ	0xFD8
  1214                           
  1215 ;; *************** function _sendIntArray *****************
  1216 ;; Defined at:
  1217 ;;		line 141 in file "main pic18.c"
  1218 ;; Parameters:    Size  Location     Type
  1219 ;;  array           2    2[COMRAM] PTR short 
  1220 ;;		 -> realNumbers(128), 
  1221 ;;  size            2    4[COMRAM] unsigned int 
  1222 ;; Auto vars:     Size  Location     Type
  1223 ;;		None
  1224 ;; Return value:  Size  Location     Type
  1225 ;;		None               void
  1226 ;; Registers used:
  1227 ;;		wreg, fsr2l, fsr2h, status,2, status,0, cstack
  1228 ;; Tracked objects:
  1229 ;;		On entry : 0/0
  1230 ;;		On exit  : 0/0
  1231 ;;		Unchanged: 0/0
  1232 ;; Data sizes:     COMRAM   BANK0   BANK1   BANK2   BANK3   BANK4   BANK5
  1233 ;;      Params:         4       0       0       0       0       0       0
  1234 ;;      Locals:         0       0       0       0       0       0       0
  1235 ;;      Temps:          0       0       0       0       0       0       0
  1236 ;;      Totals:         4       0       0       0       0       0       0
  1237 ;;Total ram usage:        4 bytes
  1238 ;; Hardware stack levels used:    1
  1239 ;; Hardware stack levels required when called:    2
  1240 ;; This function calls:
  1241 ;;		_sendChar
  1242 ;; This function is called by:
  1243 ;;		_main
  1244 ;; This function uses a non-reentrant model
  1245 ;;
  1246                           
  1247                           	psect	text1
  1248  00781A                     __ptext1:
  1249                           	opt stack 0
  1250  00781A                     _sendIntArray:
  1251                           	opt stack 28
  1252                           
  1253                           ;main pic18.c: 142: for(i = 0; i < size; i++) {
  1254                           
  1255                           ;incstack = 0
  1256  00781A  0E00               	movlw	0
  1257  00781C  6E13               	movwf	_i+1,c
  1258  00781E  0E00               	movlw	0
  1259  007820  6E12               	movwf	_i,c
  1260  007822  D00E               	goto	l1074
  1261  007824                     l1070:
  1262                           
  1263                           ;main pic18.c: 143: sendChar(array[i]);
  1264  007824  90D8               	bcf	status,0,c
  1265  007826  3412               	rlcf	_i,w,c
  1266  007828  6ED9               	movwf	fsr2l,c
  1267  00782A  3413               	rlcf	_i+1,w,c
  1268  00782C  6EDA               	movwf	fsr2h,c
  1269  00782E  5003               	movf	sendIntArray@array,w,c
  1270  007830  26D9               	addwf	fsr2l,f,c
  1271  007832  5004               	movf	sendIntArray@array+1,w,c
  1272  007834  22DA               	addwfc	fsr2h,f,c
  1273  007836  50DF               	movf	indf2,w,c
  1274  007838  ECE6  F03B         	call	_sendChar
  1275  00783C  4A12               	infsnz	_i,f,c
  1276  00783E  2A13               	incf	_i+1,f,c
  1277  007840                     l1074:
  1278  007840  5005               	movf	sendIntArray@size,w,c
  1279  007842  5C12               	subwf	_i,w,c
  1280  007844  5006               	movf	sendIntArray@size+1,w,c
  1281  007846  5813               	subwfb	_i+1,w,c
  1282  007848  B0D8               	btfsc	status,0,c
  1283  00784A  0012               	return	
  1284  00784C  D7EB               	goto	l1070
  1285  00784E                     __end_of_sendIntArray:
  1286                           	opt stack 0
  1287                           tblptru	equ	0xFF8
  1288                           postinc0	equ	0xFEE
  1289                           wreg	equ	0xFE8
  1290                           indf2	equ	0xFDF
  1291                           postinc2	equ	0xFDE
  1292                           postdec2	equ	0xFDD
  1293                           fsr2h	equ	0xFDA
  1294                           fsr2l	equ	0xFD9
  1295                           status	equ	0xFD8
  1296                           
  1297 ;; *************** function _sendChar *****************
  1298 ;; Defined at:
  1299 ;;		line 136 in file "main pic18.c"
  1300 ;; Parameters:    Size  Location     Type
  1301 ;;  character       1    wreg     unsigned char 
  1302 ;; Auto vars:     Size  Location     Type
  1303 ;;  character       1    1[COMRAM] unsigned char 
  1304 ;; Return value:  Size  Location     Type
  1305 ;;		None               void
  1306 ;; Registers used:
  1307 ;;		wreg, status,2, cstack
  1308 ;; Tracked objects:
  1309 ;;		On entry : 0/0
  1310 ;;		On exit  : 0/0
  1311 ;;		Unchanged: 0/0
  1312 ;; Data sizes:     COMRAM   BANK0   BANK1   BANK2   BANK3   BANK4   BANK5
  1313 ;;      Params:         0       0       0       0       0       0       0
  1314 ;;      Locals:         1       0       0       0       0       0       0
  1315 ;;      Temps:          0       0       0       0       0       0       0
  1316 ;;      Totals:         1       0       0       0       0       0       0
  1317 ;;Total ram usage:        1 bytes
  1318 ;; Hardware stack levels used:    1
  1319 ;; Hardware stack levels required when called:    1
  1320 ;; This function calls:
  1321 ;;		_Write1USART
  1322 ;; This function is called by:
  1323 ;;		_sendIntArray
  1324 ;;		_sendCharArray
  1325 ;; This function uses a non-reentrant model
  1326 ;;
  1327                           
  1328                           	psect	text2
  1329  0077CC                     __ptext2:
  1330                           	opt stack 0
  1331  0077CC                     _sendChar:
  1332                           	opt stack 28
  1333                           
  1334                           ;incstack = 0
  1335                           ;sendChar@character stored from wreg
  1336  0077CC  6E02               	movwf	sendChar@character,c
  1337  0077CE                     l76:
  1338  0077CE  A2AC               	btfss	4012,1,c	;volatile
  1339  0077D0  D7FE               	goto	l76
  1340                           
  1341                           ;main pic18.c: 138: Write1USART(character);
  1342  0077D2  5002               	movf	sendChar@character,w,c
  1343  0077D4  ECED  F03B         	call	_Write1USART
  1344  0077D8  0012               	return	
  1345  0077DA                     __end_of_sendChar:
  1346                           	opt stack 0
  1347                           tblptru	equ	0xFF8
  1348                           postinc0	equ	0xFEE
  1349                           wreg	equ	0xFE8
  1350                           indf2	equ	0xFDF
  1351                           postinc2	equ	0xFDE
  1352                           postdec2	equ	0xFDD
  1353                           fsr2h	equ	0xFDA
  1354                           fsr2l	equ	0xFD9
  1355                           status	equ	0xFD8
  1356                           
  1357 ;; *************** function _Write1USART *****************
  1358 ;; Defined at:
  1359 ;;		line 14 in file "/Applications/microchip/xc8/v1.33/sources/pic18/plib/USART/u1write.c"
  1360 ;; Parameters:    Size  Location     Type
  1361 ;;  data            1    wreg     unsigned char 
  1362 ;; Auto vars:     Size  Location     Type
  1363 ;;  data            1    0[COMRAM] unsigned char 
  1364 ;; Return value:  Size  Location     Type
  1365 ;;		None               void
  1366 ;; Registers used:
  1367 ;;		wreg
  1368 ;; Tracked objects:
  1369 ;;		On entry : 0/0
  1370 ;;		On exit  : 0/0
  1371 ;;		Unchanged: 0/0
  1372 ;; Data sizes:     COMRAM   BANK0   BANK1   BANK2   BANK3   BANK4   BANK5
  1373 ;;      Params:         0       0       0       0       0       0       0
  1374 ;;      Locals:         1       0       0       0       0       0       0
  1375 ;;      Temps:          0       0       0       0       0       0       0
  1376 ;;      Totals:         1       0       0       0       0       0       0
  1377 ;;Total ram usage:        1 bytes
  1378 ;; Hardware stack levels used:    1
  1379 ;; This function calls:
  1380 ;;		Nothing
  1381 ;; This function is called by:
  1382 ;;		_sendChar
  1383 ;; This function uses a non-reentrant model
  1384 ;;
  1385                           
  1386                           	psect	text3
  1387  0077DA                     __ptext3:
  1388                           	opt stack 0
  1389  0077DA                     _Write1USART:
  1390                           	opt stack 28
  1391                           
  1392                           ;incstack = 0
  1393                           ;Write1USART@data stored from wreg
  1394  0077DA  6E01               	movwf	Write1USART@data,c
  1395  0077DC  ACAC               	btfss	4012,6,c	;volatile
  1396  0077DE  D003               	goto	l1000
  1397  0077E0  90AC               	bcf	4012,0,c	;volatile
  1398  0077E2  B214               	btfsc	_USART1_Status,1,c
  1399  0077E4  80AC               	bsf	4012,0,c	;volatile
  1400  0077E6                     l1000:
  1401  0077E6  C001  FFAD         	movff	Write1USART@data,4013	;volatile
  1402  0077EA  0012               	return	
  1403  0077EC                     __end_of_Write1USART:
  1404                           	opt stack 0
  1405                           tblptru	equ	0xFF8
  1406                           postinc0	equ	0xFEE
  1407                           wreg	equ	0xFE8
  1408                           indf2	equ	0xFDF
  1409                           postinc2	equ	0xFDE
  1410                           postdec2	equ	0xFDD
  1411                           fsr2h	equ	0xFDA
  1412                           fsr2l	equ	0xFD9
  1413                           status	equ	0xFD8
  1414                           
  1415 ;; *************** function _ReadADC *****************
  1416 ;; Defined at:
  1417 ;;		line 24 in file "/Applications/microchip/xc8/v1.33/sources/pic18/plib/ADC/adcread.c"
  1418 ;; Parameters:    Size  Location     Type
  1419 ;;		None
  1420 ;; Auto vars:     Size  Location     Type
  1421 ;;		None
  1422 ;; Return value:  Size  Location     Type
  1423 ;;                  2    0[COMRAM] int 
  1424 ;; Registers used:
  1425 ;;		wreg, status,2
  1426 ;; Tracked objects:
  1427 ;;		On entry : 0/0
  1428 ;;		On exit  : 0/0
  1429 ;;		Unchanged: 0/0
  1430 ;; Data sizes:     COMRAM   BANK0   BANK1   BANK2   BANK3   BANK4   BANK5
  1431 ;;      Params:         2       0       0       0       0       0       0
  1432 ;;      Locals:         0       0       0       0       0       0       0
  1433 ;;      Temps:          0       0       0       0       0       0       0
  1434 ;;      Totals:         2       0       0       0       0       0       0
  1435 ;;Total ram usage:        2 bytes
  1436 ;; Hardware stack levels used:    1
  1437 ;; This function calls:
  1438 ;;		Nothing
  1439 ;; This function is called by:
  1440 ;;		_main
  1441 ;; This function uses a non-reentrant model
  1442 ;;
  1443                           
  1444                           	psect	text4
  1445  0077B6                     __ptext4:
  1446                           	opt stack 0
  1447  0077B6                     _ReadADC:
  1448                           	opt stack 30
  1449                           
  1450                           ;incstack = 0
  1451  0077B6  50C4               	movf	4036,w,c	;volatile
  1452  0077B8  6E02               	movwf	?_ReadADC+1,c
  1453  0077BA  50C3               	movf	4035,w,c	;volatile
  1454  0077BC  6E01               	movwf	?_ReadADC,c
  1455  0077BE  0012               	return	
  1456  0077C0                     __end_of_ReadADC:
  1457                           	opt stack 0
  1458                           tblptru	equ	0xFF8
  1459                           postinc0	equ	0xFEE
  1460                           wreg	equ	0xFE8
  1461                           indf2	equ	0xFDF
  1462                           postinc2	equ	0xFDE
  1463                           postdec2	equ	0xFDD
  1464                           fsr2h	equ	0xFDA
  1465                           fsr2l	equ	0xFD9
  1466                           status	equ	0xFD8
  1467                           
  1468 ;; *************** function _OpenADC *****************
  1469 ;; Defined at:
  1470 ;;		line 305 in file "/Applications/microchip/xc8/v1.33/sources/pic18/plib/ADC/adcopen.c"
  1471 ;; Parameters:    Size  Location     Type
  1472 ;;  config          1    wreg     unsigned char 
  1473 ;;  config2         1    0[COMRAM] unsigned char 
  1474 ;;  config3         1    1[COMRAM] unsigned char 
  1475 ;; Auto vars:     Size  Location     Type
  1476 ;;  config          1    4[COMRAM] unsigned char 
  1477 ;; Return value:  Size  Location     Type
  1478 ;;		None               void
  1479 ;; Registers used:
  1480 ;;		wreg, status,2, status,0
  1481 ;; Tracked objects:
  1482 ;;		On entry : 0/0
  1483 ;;		On exit  : 0/0
  1484 ;;		Unchanged: 0/0
  1485 ;; Data sizes:     COMRAM   BANK0   BANK1   BANK2   BANK3   BANK4   BANK5
  1486 ;;      Params:         2       0       0       0       0       0       0
  1487 ;;      Locals:         1       0       0       0       0       0       0
  1488 ;;      Temps:          2       0       0       0       0       0       0
  1489 ;;      Totals:         5       0       0       0       0       0       0
  1490 ;;Total ram usage:        5 bytes
  1491 ;; Hardware stack levels used:    1
  1492 ;; This function calls:
  1493 ;;		Nothing
  1494 ;; This function is called by:
  1495 ;;		_main
  1496 ;; This function uses a non-reentrant model
  1497 ;;
  1498                           
  1499                           	psect	text5
  1500  00784E                     __ptext5:
  1501                           	opt stack 0
  1502  00784E                     _OpenADC:
  1503                           	opt stack 30
  1504                           
  1505                           ;incstack = 0
  1506                           ;OpenADC@config stored from wreg
  1507  00784E  6E05               	movwf	OpenADC@config,c
  1508  007850  0E00               	movlw	0
  1509  007852  6EC2               	movwf	4034,c	;volatile
  1510  007854  0E00               	movlw	0
  1511  007856  6EC1               	movwf	4033,c	;volatile
  1512  007858  0E00               	movlw	0
  1513  00785A  6EC0               	movwf	4032,c	;volatile
  1514  00785C  5001               	movf	OpenADC@config2,w,c
  1515  00785E  0B7C               	andlw	124
  1516  007860  6EC2               	movwf	4034,c	;volatile
  1517  007862  C002  FFC1         	movff	OpenADC@config3,4033	;volatile
  1518  007866  C005  F003         	movff	OpenADC@config,??_OpenADC
  1519  00786A  90D8               	bcf	status,0,c
  1520  00786C  3603               	rlcf	??_OpenADC,f,c
  1521  00786E  90D8               	bcf	status,0,c
  1522  007870  3603               	rlcf	??_OpenADC,f,c
  1523  007872  0E38               	movlw	56
  1524  007874  1603               	andwf	??_OpenADC,f,c
  1525  007876  C005  F004         	movff	OpenADC@config,??_OpenADC+1
  1526  00787A  3A04               	swapf	??_OpenADC+1,f,c
  1527  00787C  0E0F               	movlw	15
  1528  00787E  1604               	andwf	??_OpenADC+1,f,c
  1529  007880  0E07               	movlw	7
  1530  007882  1604               	andwf	??_OpenADC+1,f,c
  1531  007884  5005               	movf	OpenADC@config,w,c
  1532  007886  0B80               	andlw	128
  1533  007888  1004               	iorwf	??_OpenADC+1,w,c
  1534  00788A  1003               	iorwf	??_OpenADC,w,c
  1535  00788C  6EC0               	movwf	4032,c	;volatile
  1536  00788E  AE01               	btfss	OpenADC@config2,7,c
  1537  007890  D003               	goto	l133
  1538  007892  9C9E               	bcf	3998,6,c	;volatile
  1539  007894  8C9D               	bsf	3997,6,c	;volatile
  1540  007896  8CF2               	bsf	intcon,6,c	;volatile
  1541  007898                     l133:
  1542  007898  80C2               	bsf	4034,0,c	;volatile
  1543  00789A  0012               	return	
  1544  00789C                     __end_of_OpenADC:
  1545                           	opt stack 0
  1546                           tblptru	equ	0xFF8
  1547                           intcon	equ	0xFF2
  1548                           postinc0	equ	0xFEE
  1549                           wreg	equ	0xFE8
  1550                           indf2	equ	0xFDF
  1551                           postinc2	equ	0xFDE
  1552                           postdec2	equ	0xFDD
  1553                           fsr2h	equ	0xFDA
  1554                           fsr2l	equ	0xFD9
  1555                           status	equ	0xFD8
  1556                           
  1557 ;; *************** function _Open1USART *****************
  1558 ;; Defined at:
  1559 ;;		line 124 in file "/Applications/microchip/xc8/v1.33/sources/pic18/plib/USART/u1open.c"
  1560 ;; Parameters:    Size  Location     Type
  1561 ;;  config          1    wreg     unsigned char 
  1562 ;;  spbrg           2    0[COMRAM] unsigned int 
  1563 ;; Auto vars:     Size  Location     Type
  1564 ;;  config          1    5[COMRAM] unsigned char 
  1565 ;; Return value:  Size  Location     Type
  1566 ;;		None               void
  1567 ;; Registers used:
  1568 ;;		wreg, status,2
  1569 ;; Tracked objects:
  1570 ;;		On entry : 0/0
  1571 ;;		On exit  : 0/0
  1572 ;;		Unchanged: 0/0
  1573 ;; Data sizes:     COMRAM   BANK0   BANK1   BANK2   BANK3   BANK4   BANK5
  1574 ;;      Params:         2       0       0       0       0       0       0
  1575 ;;      Locals:         1       0       0       0       0       0       0
  1576 ;;      Temps:          3       0       0       0       0       0       0
  1577 ;;      Totals:         6       0       0       0       0       0       0
  1578 ;;Total ram usage:        6 bytes
  1579 ;; Hardware stack levels used:    1
  1580 ;; This function calls:
  1581 ;;		Nothing
  1582 ;; This function is called by:
  1583 ;;		_main
  1584 ;; This function uses a non-reentrant model
  1585 ;;
  1586                           
  1587                           	psect	text6
  1588  00789C                     __ptext6:
  1589                           	opt stack 0
  1590  00789C                     _Open1USART:
  1591                           	opt stack 30
  1592                           
  1593                           ;incstack = 0
  1594                           ;Open1USART@config stored from wreg
  1595  00789C  6E06               	movwf	Open1USART@config,c
  1596  00789E  0E00               	movlw	0
  1597  0078A0  6EAC               	movwf	4012,c	;volatile
  1598  0078A2  0E00               	movlw	0
  1599  0078A4  6EAB               	movwf	4011,c	;volatile
  1600  0078A6  B006               	btfsc	Open1USART@config,0,c
  1601  0078A8  88AC               	bsf	4012,4,c	;volatile
  1602  0078AA  A206               	btfss	Open1USART@config,1,c
  1603  0078AC  D002               	goto	l1028
  1604  0078AE  8CAC               	bsf	4012,6,c	;volatile
  1605  0078B0  8CAB               	bsf	4011,6,c	;volatile
  1606  0078B2                     l1028:
  1607  0078B2  B406               	btfsc	Open1USART@config,2,c
  1608  0078B4  8EAC               	bsf	4012,7,c	;volatile
  1609  0078B6  A606               	btfss	Open1USART@config,3,c
  1610  0078B8  D002               	goto	l161
  1611  0078BA  88AB               	bsf	4011,4,c	;volatile
  1612  0078BC  D001               	goto	l1036
  1613  0078BE                     l161:
  1614  0078BE  8AAB               	bsf	4011,5,c	;volatile
  1615  0078C0                     l1036:
  1616  0078C0  B806               	btfsc	Open1USART@config,4,c
  1617  0078C2  84AC               	bsf	4012,2,c	;volatile
  1618  0078C4  BA06               	btfsc	Open1USART@config,5,c
  1619  0078C6  86AB               	bsf	4011,3,c	;volatile
  1620  0078C8  AC06               	btfss	Open1USART@config,6,c
  1621  0078CA  D002               	goto	l165
  1622  0078CC  8A9D               	bsf	3997,5,c	;volatile
  1623  0078CE  D001               	goto	l1048
  1624  0078D0                     l165:
  1625  0078D0  9A9D               	bcf	3997,5,c	;volatile
  1626  0078D2                     l1048:
  1627  0078D2  AE06               	btfss	Open1USART@config,7,c
  1628  0078D4  D002               	goto	l167
  1629  0078D6  889D               	bsf	3997,4,c	;volatile
  1630  0078D8  D001               	goto	l168
  1631  0078DA                     l167:
  1632  0078DA  989D               	bcf	3997,4,c	;volatile
  1633  0078DC                     l168:
  1634  0078DC  C001  FFAF         	movff	Open1USART@spbrg,4015	;volatile
  1635  0078E0  C002  F003         	movff	Open1USART@spbrg+1,??_Open1USART
  1636  0078E4  C003  F004         	movff	??_Open1USART,??_Open1USART+1
  1637  0078E8  6A05               	clrf	(??_Open1USART+2)& (0+255),c
  1638  0078EA  5004               	movf	??_Open1USART+1,w,c
  1639  0078EC  6EB0               	movwf	4016,c	;volatile
  1640  0078EE  8AAC               	bsf	4012,5,c	;volatile
  1641  0078F0  8EAB               	bsf	4011,7,c	;volatile
  1642  0078F2  0012               	return	
  1643  0078F4                     __end_of_Open1USART:
  1644                           	opt stack 0
  1645                           tblptru	equ	0xFF8
  1646                           intcon	equ	0xFF2
  1647                           postinc0	equ	0xFEE
  1648                           wreg	equ	0xFE8
  1649                           indf2	equ	0xFDF
  1650                           postinc2	equ	0xFDE
  1651                           postdec2	equ	0xFDD
  1652                           fsr2h	equ	0xFDA
  1653                           fsr2l	equ	0xFD9
  1654                           status	equ	0xFD8
  1655                           
  1656 ;; *************** function _ConvertADC *****************
  1657 ;; Defined at:
  1658 ;;		line 22 in file "/Applications/microchip/xc8/v1.33/sources/pic18/plib/ADC/adcconv.c"
  1659 ;; Parameters:    Size  Location     Type
  1660 ;;		None
  1661 ;; Auto vars:     Size  Location     Type
  1662 ;;		None
  1663 ;; Return value:  Size  Location     Type
  1664 ;;		None               void
  1665 ;; Registers used:
  1666 ;;		None
  1667 ;; Tracked objects:
  1668 ;;		On entry : 0/0
  1669 ;;		On exit  : 0/0
  1670 ;;		Unchanged: 0/0
  1671 ;; Data sizes:     COMRAM   BANK0   BANK1   BANK2   BANK3   BANK4   BANK5
  1672 ;;      Params:         0       0       0       0       0       0       0
  1673 ;;      Locals:         0       0       0       0       0       0       0
  1674 ;;      Temps:          0       0       0       0       0       0       0
  1675 ;;      Totals:         0       0       0       0       0       0       0
  1676 ;;Total ram usage:        0 bytes
  1677 ;; Hardware stack levels used:    1
  1678 ;; This function calls:
  1679 ;;		Nothing
  1680 ;; This function is called by:
  1681 ;;		_main
  1682 ;; This function uses a non-reentrant model
  1683 ;;
  1684                           
  1685                           	psect	text7
  1686  0077B2                     __ptext7:
  1687                           	opt stack 0
  1688  0077B2                     _ConvertADC:
  1689                           	opt stack 30
  1690                           
  1691                           ;incstack = 0
  1692  0077B2  82C2               	bsf	4034,1,c	;volatile
  1693  0077B4  0012               	return	
  1694  0077B6                     __end_of_ConvertADC:
  1695                           	opt stack 0
  1696                           tblptru	equ	0xFF8
  1697                           intcon	equ	0xFF2
  1698                           postinc0	equ	0xFEE
  1699                           wreg	equ	0xFE8
  1700                           indf2	equ	0xFDF
  1701                           postinc2	equ	0xFDE
  1702                           postdec2	equ	0xFDD
  1703                           fsr2h	equ	0xFDA
  1704                           fsr2l	equ	0xFD9
  1705                           status	equ	0xFD8
  1706                           
  1707 ;; *************** function _BusyADC *****************
  1708 ;; Defined at:
  1709 ;;		line 26 in file "/Applications/microchip/xc8/v1.33/sources/pic18/plib/ADC/adcbusy.c"
  1710 ;; Parameters:    Size  Location     Type
  1711 ;;		None
  1712 ;; Auto vars:     Size  Location     Type
  1713 ;;		None
  1714 ;; Return value:  Size  Location     Type
  1715 ;;                  1    wreg      unsigned char 
  1716 ;; Registers used:
  1717 ;;		wreg
  1718 ;; Tracked objects:
  1719 ;;		On entry : 0/0
  1720 ;;		On exit  : 0/0
  1721 ;;		Unchanged: 0/0
  1722 ;; Data sizes:     COMRAM   BANK0   BANK1   BANK2   BANK3   BANK4   BANK5
  1723 ;;      Params:         0       0       0       0       0       0       0
  1724 ;;      Locals:         0       0       0       0       0       0       0
  1725 ;;      Temps:          0       0       0       0       0       0       0
  1726 ;;      Totals:         0       0       0       0       0       0       0
  1727 ;;Total ram usage:        0 bytes
  1728 ;; Hardware stack levels used:    1
  1729 ;; This function calls:
  1730 ;;		Nothing
  1731 ;; This function is called by:
  1732 ;;		_main
  1733 ;; This function uses a non-reentrant model
  1734 ;;
  1735                           
  1736                           	psect	text8
  1737  0077C0                     __ptext8:
  1738                           	opt stack 0
  1739  0077C0                     _BusyADC:
  1740                           	opt stack 30
  1741                           
  1742                           ;incstack = 0
  1743  0077C0  A2C2               	btfss	4034,1,c	;volatile
  1744  0077C2  D002               	goto	u440
  1745  0077C4  0E01               	movlw	1
  1746  0077C6  0012               	return	
  1747  0077C8                     u440:
  1748  0077C8  0E00               	movlw	0
  1749  0077CA  0012               	return	
  1750  0077CC                     __end_of_BusyADC:
  1751                           	opt stack 0
  1752                           tblptru	equ	0xFF8
  1753                           intcon	equ	0xFF2
  1754                           postinc0	equ	0xFEE
  1755                           wreg	equ	0xFE8
  1756                           indf2	equ	0xFDF
  1757                           postinc2	equ	0xFDE
  1758                           postdec2	equ	0xFDD
  1759                           fsr2h	equ	0xFDA
  1760                           fsr2l	equ	0xFD9
  1761                           status	equ	0xFD8
  1762                           tblptru	equ	0xFF8
  1763                           intcon	equ	0xFF2
  1764                           postinc0	equ	0xFEE
  1765                           wreg	equ	0xFE8
  1766                           indf2	equ	0xFDF
  1767                           postinc2	equ	0xFDE
  1768                           postdec2	equ	0xFDD
  1769                           fsr2h	equ	0xFDA
  1770                           fsr2l	equ	0xFD9
  1771                           status	equ	0xFD8
  1772                           
  1773                           	psect	rparam
  1774  0000                     tblptru	equ	0xFF8
  1775                           intcon	equ	0xFF2
  1776                           postinc0	equ	0xFEE
  1777                           wreg	equ	0xFE8
  1778                           indf2	equ	0xFDF
  1779                           postinc2	equ	0xFDE
  1780                           postdec2	equ	0xFDD
  1781                           fsr2h	equ	0xFDA
  1782                           fsr2l	equ	0xFD9
  1783                           status	equ	0xFD8


Data Sizes:
    Strings     0
    Constant    1536
    Data        0
    BSS         265
    Persistent  4
    Stack       0

Auto Spaces:
    Space          Size  Autos    Used
    COMRAM           95     12      25
    BANK0           160      0     128
    BANK1           256      0     128
    BANK2           256      0       0
    BANK3           256      0       0
    BANK4           256      0       0
    BANK5           256      0       0

Pointer List with Targets:

    sendIntArray@array	PTR short  size(2) Largest target is 128
		 -> realNumbers(BANK0[128]), 


Critical Paths under _main in COMRAM

    _main->_Open1USART
    _main->_sendIntArray
    _sendIntArray->_sendChar
    _sendChar->_Write1USART

Critical Paths under _main in BANK0

    None.

Critical Paths under _main in BANK1

    None.

Critical Paths under _main in BANK2

    None.

Critical Paths under _main in BANK3

    None.

Critical Paths under _main in BANK4

    None.

Critical Paths under _main in BANK5

    None.

Call Graph Tables:

 ---------------------------------------------------------------------------------
 (Depth) Function   	        Calls       Base Space   Used Autos Params    Refs
 ---------------------------------------------------------------------------------
 (0) _main                                                 6     6      0     819
                                              6 COMRAM     6     6      0
                            _BusyADC
                         _ConvertADC
                         _Open1USART
                            _OpenADC
                            _ReadADC
                       _sendIntArray
 ---------------------------------------------------------------------------------
 (1) _sendIntArray                                         4     0      4     194
                                              2 COMRAM     4     0      4
                           _sendChar
 ---------------------------------------------------------------------------------
 (2) _sendChar                                             1     1      0      44
                                              1 COMRAM     1     1      0
                        _Write1USART
 ---------------------------------------------------------------------------------
 (3) _Write1USART                                          1     1      0      22
                                              0 COMRAM     1     1      0
 ---------------------------------------------------------------------------------
 (1) _ReadADC                                              2     0      2       0
                                              0 COMRAM     2     0      2
 ---------------------------------------------------------------------------------
 (1) _OpenADC                                              5     3      2     238
                                              0 COMRAM     5     3      2
 ---------------------------------------------------------------------------------
 (1) _Open1USART                                           6     4      2     273
                                              0 COMRAM     6     4      2
 ---------------------------------------------------------------------------------
 (1) _ConvertADC                                           0     0      0       0
 ---------------------------------------------------------------------------------
 (1) _BusyADC                                              0     0      0       0
 ---------------------------------------------------------------------------------
 Estimated maximum stack depth 3
 ---------------------------------------------------------------------------------

 Call Graph Graphs:

 _main (ROOT)
   _BusyADC
   _ConvertADC
   _Open1USART
   _OpenADC
   _ReadADC
   _sendIntArray
     _sendChar
       _Write1USART

 Address spaces:
Name               Size   Autos  Total    Cost      Usage
BIGRAM             5FF      0       0      16        0.0%
EEDATA             100      0       0       0        0.0%
BITBANK5           100      0       0      14        0.0%
BANK5              100      0       0      15        0.0%
BITBANK4           100      0       0      12        0.0%
BANK4              100      0       0      13        0.0%
BITBANK3           100      0       0      10        0.0%
BANK3              100      0       0      11        0.0%
BITBANK2           100      0       0       7        0.0%
BANK2              100      0       0       8        0.0%
BITBANK1           100      0       0       5        0.0%
BANK1              100      0      80       6       50.0%
BITBANK0            A0      0       0       3        0.0%
BANK0               A0      0      80       4       80.0%
BITCOMRAM           5F      0       0       0        0.0%
COMRAM              5F      C      19       1       26.3%
BITSFR_1             0      0       0      40        0.0%
SFR_1                0      0       0      40        0.0%
BITSFR               0      0       0      40        0.0%
SFR                  0      0       0      40        0.0%
STACK                0      0       0       2        0.0%
NULL                 0      0       0       0        0.0%
ABS                  0      0     119       9        0.0%
DATA                 0      0     119      17        0.0%
CODE                 0      0       0       0        0.0%


Microchip Technology PIC18 Macro Assembler V1.33 build 59893 
Symbol Table                                                                                   Thu Dec  4 14:21:49 2014

                      _i 0012                       l76 77CE                      l133 7898  
                    l161 78BE                      l165 78D0                      l167 78DA  
                    l168 78DC                      u440 77C8                      wreg 000FE8  
             _TXSTA1bits 000FAC             __CFG_LVP$OFF 000000                     l1000 77E6  
                   l1106 7978                     l1036 78C0                     l1028 78B2  
                   l1070 7824                     l1118 79E4                     l1048 78D2  
                   l1074 7840                     l1098 7954                     _LATC 000F8B  
                   _PIE1 000F9D                     _data 000D                     _main 78F4  
                   fsr2h 000FDA                     indf2 000FDF                     fsr2l 000FD9  
                   start 0000          __end_of_BusyADC 77CC          __end_of_ReadADC 77C0  
        __end_of_OpenADC 789C                    ?_main 0001                    _TRISC 000F94  
                  _input 0015                    main@i 000B               _ConvertADC 77B2  
                  status 000FD8            main@adc_value 0009           __CFG_PBADEN$ON 000000  
        __initialization 77EC             __end_of_main 79FE               _Open1USART 789C  
                 ??_main 0007            __activetblptr 000002         __end_of_Sinewave 7FFF  
                 _ADCON0 000FC2                   _ADCON1 000FC1                   _ADCON2 000FC0  
                 _ADRESH 000FC4                   _ADRESL 000FC3                   _ANSELC 000F3A  
         __CFG_WDTEN$OFF 000000                   _RCSTA1 000FAB                   _SPBRG1 000FAF  
              ??_BusyADC 0001                   _TXREG1 000FAD                ??_ReadADC 0003  
                 _TXSTA1 000FAC                ??_OpenADC 0003                   clear_0 77F2  
                 clear_1 77FE                   clear_2 780A         __end_of_sendChar 77DA  
           __mediumconst 79FE                   tblptru 000FF8              ?_ConvertADC 0001  
             __accesstop 0060  __end_of__initialization 7810           __pcstackCOMRAM 0001  
            ?_Open1USART 0001            ?_sendIntArray 0003               __pbssBANK0 0060  
             __pbssBANK1 0100          __CFG_PLLCFG$OFF 000000            ??_Write1USART 0001  
             __pnvCOMRAM 0016      __size_of_ConvertADC 0004         Open1USART@config 0006  
         ??_sendIntArray 0007        __CFG_PRICLKEN$OFF 000000                  _SPBRGH1 000FB0  
    __size_of_Open1USART 0058                  _BusyADC 77C0                  _ReadADC 77B6  
              ?_sendChar 0001                  _OpenADC 784E                  __Hparam 0000  
                __Lparam 0000      __end_of_Write1USART 77EC                  __pcinit 77EC  
                __ramtop 0600                  __ptext0 78F4                  __ptext1 781A  
                __ptext2 77CC                  __ptext3 77DA                  __ptext4 77B6  
                __ptext5 784E                  __ptext6 789C                  __ptext7 77B2  
                __ptext8 77C0           OpenADC@config2 0001           OpenADC@config3 0002  
   end_of_initialization 7810            __Lmediumconst 79FE               ??_sendChar 0002  
                postdec2 000FDD                  postinc0 000FEE                  postinc2 000FDE  
      sendIntArray@array 0003         __CFG_FOSC$INTIO7 000000                _TRISAbits 000F92  
              _TRISCbits 000F94             ??_ConvertADC 0001              _Write1USART 77DA  
   __end_of_sendIntArray 784E             ??_Open1USART 0003       __end_of_ConvertADC 77B6  
    start_initialization 77EC       __end_of_Open1USART 78F4         _imaginaryNumbers 0100  
            __pbssCOMRAM 000D                _baud_rate 0016                 ?_BusyADC 0001  
               ?_ReadADC 0001                 ?_OpenADC 0001        __size_of_sendChar 000E  
          __pmediumconst 79FE          Open1USART@spbrg 0001          Write1USART@data 0001  
  __size_of_sendIntArray 0034            OpenADC@config 0005                 _PIE1bits 000F9D  
               _PIR1bits 000F9E         sendIntArray@size 0005               _ADCON0bits 000FC2  
           _sendIntArray 781A             ?_Write1USART 0001         __size_of_BusyADC 000C  
       __size_of_ReadADC 000A                 __Hrparam 0000         __size_of_OpenADC 004E  
               __Lrparam 0000                 _Sinewave 79FF              _realNumbers 0060  
          __size_of_main 010A                 _sendChar 77CC            _USART1_Status 0014  
            _OSCTUNEbits 000F9B               _INTCONbits 000FF2               _RCSTA1bits 000FAB  
             _OSCCONbits 000FD3        sendChar@character 0002     __size_of_Write1USART 0012  
